; Function Attrs: nounwind uwtable
define noundef i32 @cli_bcapi_get_environment(ptr nocapture noundef readonly %0, ptr nocapture noundef writeonly %1, i32 noundef %2) local_unnamed_addr #1 {
  %4 = icmp ugt i32 %2, 492
  br i1 %4, label %5, label %6

5:                                                ; preds = %3
  tail call void (ptr, ...) @cli_dbgmsg(ptr noundef nonnull @.str.114, i32 noundef %2, i64 noundef 492) #29
  br label %10

6:                                                ; preds = %3
  %7 = zext nneg i32 %2 to i64
  %8 = getelementptr inbounds i8, ptr %0, i64 1296
  %9 = load ptr, ptr %8, align 8
  tail call void @llvm.memcpy.p0.p0.i64(ptr align 4 %1, ptr align 4 %9, i64 %7, i1 false)
  br label %10

10:                                               ; preds = %6, %5
  %.0 = phi i32 [ -1, %5 ], [ 0, %6 ]
  ret i32 %.0
}